; Function Attrs: mustprogress uwtable
define void @_ZN10TimerGroupmIERKS_(ptr nocapture noundef nonnull readonly align 8 dereferenceable(56) %0, ptr nocapture noundef nonnull readonly align 8 dereferenceable(56) %1) local_unnamed_addr #3 align 2 {
  %3 = getelementptr inbounds nuw i8, ptr %0, i64 8
  %4 = load ptr, ptr %3, align 8
  %5 = load ptr, ptr %0, align 8
  %.not = icmp eq ptr %4, %5
  br i1 %.not, label %._crit_edge, label %.lr.ph

.lr.ph:                                           ; preds = %2, %.lr.ph
  %6 = phi ptr [ %14, %.lr.ph ], [ %5, %2 ]
  %7 = phi i64 [ %12, %.lr.ph ], [ 0, %2 ]
  %.06 = phi i32 [ %11, %.lr.ph ], [ 0, %2 ]
  %8 = load ptr, ptr %1, align 8
  %9 = getelementptr inbounds %class.Timer, ptr %8, i64 %7
  %10 = getelementptr inbounds %class.Timer, ptr %6, i64 %7
  tail call void @_ZN5TimermIERKS_(ptr noundef nonnull align 8 dereferenceable(72) %10, ptr noundef nonnull align 8 dereferenceable(72) %9)
  %11 = add i32 %.06, 1
  %12 = zext i32 %11 to i64
  %13 = load ptr, ptr %3, align 8
  %14 = load ptr, ptr %0, align 8
  %15 = ptrtoint ptr %13 to i64
  %16 = ptrtoint ptr %14 to i64
  %17 = sub i64 %15, %16
  %18 = sdiv exact i64 %17, 72
  %19 = icmp ugt i64 %18, %12
  br i1 %19, label %.lr.ph, label %._crit_edge, !llvm.loop !17

._crit_edge:                                      ; preds = %.lr.ph, %2
  ret void
}